target datalayout = "e-m:e-p270:32:32-p271:32:32-p272:64:64-i64:64-i128:128-f80:128-n8:16:32:64-S128"
target triple = "x86_64-pc-linux-gnu"

%struct.psa_its_file_header_t = type { [8 x i8], [4 x i8], [4 x i8] }

@.str = private unnamed_addr constant [9 x i8] c"PSA\00ITS\00\00", align 1
@.str.1 = private unnamed_addr constant [17 x i8] c"tempfile.psa_its\00", align 1
@.str.2 = private unnamed_addr constant [3 x i8] c"wb\00", align 1
@.str.4 = private unnamed_addr constant [13 x i8] c"%s%08x%08x%s\00", align 1
@.str.5 = private unnamed_addr constant [1 x i8] zeroinitializer, align 1
@.str.6 = private unnamed_addr constant [9 x i8] c".psa_its\00", align 1

; Function Attrs: nounwind uwtable
define internal void @psa_its_fill_filename(i64 noundef %0, ptr noundef %1) #0 {
  %3 = alloca i64, align 8
  %4 = alloca ptr, align 8
  store i64 %0, ptr %3, align 8, !tbaa !3
  store ptr %1, ptr %4, align 8, !tbaa !23
  %5 = load ptr, ptr %4, align 8, !tbaa !23
  %6 = load i64, ptr %3, align 8, !tbaa !3
  %7 = lshr i64 %6, 32
  %8 = trunc i64 %7 to i32
  %9 = load i64, ptr %3, align 8, !tbaa !3
  %10 = and i64 %9, 4294967295
  %11 = trunc i64 %10 to i32
  %12 = call i32 (ptr, i64, ptr, ...) @snprintf(ptr noundef %5, i64 noundef 25, ptr noundef @.str.4, ptr noundef @.str.5, i32 noundef %8, i32 noundef %11, ptr noundef @.str.6) #7
  ret void
}

; Function Attrs: alwaysinline nounwind uwtable
define internal void @mbedtls_put_unaligned_uint32(ptr noundef %0, i32 noundef %1) #4 {
  %3 = alloca ptr, align 8
  %4 = alloca i32, align 4
  store ptr %0, ptr %3, align 8, !tbaa !20
  store i32 %1, ptr %4, align 4, !tbaa !12
  %5 = load ptr, ptr %3, align 8, !tbaa !20
  call void @llvm.memcpy.p0.p0.i64(ptr align 1 %5, ptr align 4 %4, i64 4, i1 false)
  ret void
}

; Function Attrs: nounwind uwtable
define hidden i32 @psa_its_set(i64 noundef %0, i32 noundef %1, ptr noundef %2, i32 noundef %3) #0 {
  %5 = alloca i32, align 4
  %6 = alloca i64, align 8
  %7 = alloca i32, align 4
  %8 = alloca ptr, align 8
  %9 = alloca i32, align 4
  %10 = alloca i32, align 4
  %11 = alloca [25 x i8], align 16
  %12 = alloca ptr, align 8
  %13 = alloca %struct.psa_its_file_header_t, align 1
  %14 = alloca i64, align 8
  %15 = alloca i32, align 4
  store i64 %0, ptr %6, align 8, !tbaa !3
  store i32 %1, ptr %7, align 4, !tbaa !12
  store ptr %2, ptr %8, align 8, !tbaa !20
  store i32 %3, ptr %9, align 4, !tbaa !12
  %16 = load i64, ptr %6, align 8, !tbaa !3
  %17 = icmp eq i64 %16, 0
  br i1 %17, label %18, label %19

18:                                               ; preds = %4
  store i32 -136, ptr %5, align 4
  br label %84

19:                                               ; preds = %4
  call void @llvm.lifetime.start.p0(i64 4, ptr %10) #7
  store i32 -146, ptr %10, align 4, !tbaa !12
  call void @llvm.lifetime.start.p0(i64 25, ptr %11) #7
  call void @llvm.lifetime.start.p0(i64 8, ptr %12) #7
  store ptr null, ptr %12, align 8, !tbaa !10
  call void @llvm.lifetime.start.p0(i64 16, ptr %13) #7
  call void @llvm.lifetime.start.p0(i64 8, ptr %14) #7
  %20 = getelementptr inbounds nuw %struct.psa_its_file_header_t, ptr %13, i32 0, i32 0
  %21 = getelementptr inbounds [8 x i8], ptr %20, i64 0, i64 0
  call void @llvm.memcpy.p0.p0.i64(ptr align 1 %21, ptr align 1 @.str, i64 8, i1 false)
  %22 = getelementptr inbounds nuw %struct.psa_its_file_header_t, ptr %13, i32 0, i32 1
  %23 = getelementptr inbounds [4 x i8], ptr %22, i64 0, i64 0
  %24 = getelementptr inbounds i8, ptr %23, i64 0
  %25 = load i32, ptr %7, align 4, !tbaa !12
  call void @mbedtls_put_unaligned_uint32(ptr noundef %24, i32 noundef %25)
  %26 = getelementptr inbounds nuw %struct.psa_its_file_header_t, ptr %13, i32 0, i32 2
  %27 = getelementptr inbounds [4 x i8], ptr %26, i64 0, i64 0
  %28 = getelementptr inbounds i8, ptr %27, i64 0
  %29 = load i32, ptr %9, align 4, !tbaa !12
  call void @mbedtls_put_unaligned_uint32(ptr noundef %28, i32 noundef %29)
  %30 = load i64, ptr %6, align 8, !tbaa !3
  %31 = getelementptr inbounds [25 x i8], ptr %11, i64 0, i64 0
  call void @psa_its_fill_filename(i64 noundef %30, ptr noundef %31)
  %32 = call noalias ptr @fopen(ptr noundef @.str.1, ptr noundef @.str.2)
  store ptr %32, ptr %12, align 8, !tbaa !10
  %33 = load ptr, ptr %12, align 8, !tbaa !10
  %34 = icmp eq ptr %33, null
  br i1 %34, label %35, label %36

35:                                               ; preds = %19
  br label %59

36:                                               ; preds = %19
  %37 = load ptr, ptr %12, align 8, !tbaa !10
  call void @setbuf(ptr noundef %37, ptr noundef null) #7
  store i32 -142, ptr %10, align 4, !tbaa !12
  %38 = load ptr, ptr %12, align 8, !tbaa !10
  %39 = call i64 @fwrite(ptr noundef %13, i64 noundef 1, i64 noundef 16, ptr noundef %38)
  store i64 %39, ptr %14, align 8, !tbaa !3
  %40 = load i64, ptr %14, align 8, !tbaa !3
  %41 = icmp ne i64 %40, 16
  br i1 %41, label %42, label %43

42:                                               ; preds = %36
  br label %59

43:                                               ; preds = %36
  %44 = load i32, ptr %7, align 4, !tbaa !12
  %45 = icmp ne i32 %44, 0
  br i1 %45, label %46, label %58

46:                                               ; preds = %43
  %47 = load ptr, ptr %8, align 8, !tbaa !20
  %48 = load i32, ptr %7, align 4, !tbaa !12
  %49 = zext i32 %48 to i64
  %50 = load ptr, ptr %12, align 8, !tbaa !10
  %51 = call i64 @fwrite(ptr noundef %47, i64 noundef 1, i64 noundef %49, ptr noundef %50)
  store i64 %51, ptr %14, align 8, !tbaa !3
  %52 = load i64, ptr %14, align 8, !tbaa !3
  %53 = load i32, ptr %7, align 4, !tbaa !12
  %54 = zext i32 %53 to i64
  %55 = icmp ne i64 %52, %54
  br i1 %55, label %56, label %57

56:                                               ; preds = %46
  br label %59

57:                                               ; preds = %46
  br label %58

58:                                               ; preds = %57, %43
  store i32 0, ptr %10, align 4, !tbaa !12
  br label %59

59:                                               ; preds = %58, %56, %42, %35
  %60 = load ptr, ptr %12, align 8, !tbaa !10
  %61 = icmp ne ptr %60, null
  br i1 %61, label %62, label %72

62:                                               ; preds = %59
  call void @llvm.lifetime.start.p0(i64 4, ptr %15) #7
  %63 = load ptr, ptr %12, align 8, !tbaa !10
  %64 = call i32 @fclose(ptr noundef %63)
  store i32 %64, ptr %15, align 4, !tbaa !12
  %65 = load i32, ptr %10, align 4, !tbaa !12
  %66 = icmp eq i32 %65, 0
  br i1 %66, label %67, label %71

67:                                               ; preds = %62
  %68 = load i32, ptr %15, align 4, !tbaa !12
  %69 = icmp ne i32 %68, 0
  br i1 %69, label %70, label %71

70:                                               ; preds = %67
  store i32 -142, ptr %10, align 4, !tbaa !12
  br label %71

71:                                               ; preds = %70, %67, %62
  call void @llvm.lifetime.end.p0(i64 4, ptr %15) #7
  br label %72

72:                                               ; preds = %71, %59
  %73 = load i32, ptr %10, align 4, !tbaa !12
  %74 = icmp eq i32 %73, 0
  br i1 %74, label %75, label %81

75:                                               ; preds = %72
  %76 = getelementptr inbounds [25 x i8], ptr %11, i64 0, i64 0
  %77 = call i32 @rename(ptr noundef @.str.1, ptr noundef %76) #7
  %78 = icmp ne i32 %77, 0
  br i1 %78, label %79, label %80

79:                                               ; preds = %75
  store i32 -146, ptr %10, align 4, !tbaa !12
  br label %80

80:                                               ; preds = %79, %75
  br label %81

81:                                               ; preds = %80, %72
  %82 = call i32 @remove(ptr noundef @.str.1) #7
  %83 = load i32, ptr %10, align 4, !tbaa !12
  store i32 %83, ptr %5, align 4
  call void @llvm.lifetime.end.p0(i64 8, ptr %14) #7
  call void @llvm.lifetime.end.p0(i64 16, ptr %13) #7
  call void @llvm.lifetime.end.p0(i64 8, ptr %12) #7
  call void @llvm.lifetime.end.p0(i64 25, ptr %11) #7
  call void @llvm.lifetime.end.p0(i64 4, ptr %10) #7
  br label %84

84:                                               ; preds = %81, %18
  %85 = load i32, ptr %5, align 4
  ret i32 %85
}