; Function Attrs: nofree nounwind uwtable
define hidden range(i32 -146, 1) i32 @psa_its_set(i64 noundef %0, i32 noundef %1, ptr noundef captures(none) %2, i32 noundef %3) local_unnamed_addr #0 {
  %5 = alloca [25 x i8], align 16
  %6 = alloca %struct.psa_its_file_header_t, align 8
  %7 = icmp eq i64 %0, 0
  br i1 %7, label %30, label %8

8:                                                ; preds = %4
  call void @llvm.lifetime.start.p0(i64 25, ptr nonnull %5) #4
  call void @llvm.lifetime.start.p0(i64 16, ptr nonnull %6) #4
  store i64 23455095580611408, ptr %6, align 8
  %9 = getelementptr inbounds nuw i8, ptr %6, i64 8
  store i32 %1, ptr %9, align 8
  %10 = getelementptr inbounds nuw i8, ptr %6, i64 12
  store i32 %3, ptr %10, align 4
  %11 = lshr i64 %0, 32
  %12 = trunc nuw i64 %11 to i32
  %13 = trunc i64 %0 to i32
  %14 = call i32 (ptr, i64, ptr, ...) @snprintf(ptr noundef nonnull dereferenceable(1) %5, i64 noundef 25, ptr noundef nonnull @.str.4, ptr noundef nonnull @.str.5, i32 noundef %12, i32 noundef %13, ptr noundef nonnull @.str.6) #4
  %15 = tail call noalias ptr @fopen(ptr noundef nonnull @.str.1, ptr noundef nonnull @.str.2)
  %16 = icmp eq ptr %15, null
  br i1 %16, label %.thread33, label %17

17:                                               ; preds = %8
  tail call void @setbuf(ptr noundef nonnull %15, ptr noundef null) #4
  %18 = call i64 @fwrite(ptr noundef nonnull %6, i64 noundef 1, i64 noundef 16, ptr noundef nonnull %15)
  %.not = icmp eq i64 %18, 16
  br i1 %.not, label %19, label %25

19:                                               ; preds = %17
  %.not26 = icmp eq i32 %1, 0
  br i1 %.not26, label %23, label %20

20:                                               ; preds = %19
  %21 = zext i32 %1 to i64
  %22 = tail call i64 @fwrite(ptr noundef %2, i64 noundef 1, i64 noundef %21, ptr noundef nonnull %15)
  %.not27 = icmp eq i64 %22, %21
  br i1 %.not27, label %23, label %25

23:                                               ; preds = %19, %20
  %24 = tail call i32 @fclose(ptr noundef nonnull %15)
  %.not42 = icmp eq i32 %24, 0
  br i1 %.not42, label %27, label %.thread33

25:                                               ; preds = %20, %17
  %26 = tail call i32 @fclose(ptr noundef nonnull %15)
  br label %.thread33

27:                                               ; preds = %23
  %28 = call i32 @rename(ptr noundef nonnull @.str.1, ptr noundef nonnull %5) #4
  %.not29 = icmp eq i32 %28, 0
  %spec.select = select i1 %.not29, i32 0, i32 -146
  br label %.thread33

.thread33:                                        ; preds = %25, %23, %8, %27
  %.2 = phi i32 [ -142, %25 ], [ %spec.select, %27 ], [ -146, %8 ], [ -142, %23 ]
  %29 = tail call i32 @remove(ptr noundef nonnull @.str.1) #4
  call void @llvm.lifetime.end.p0(i64 16, ptr nonnull %6) #4
  call void @llvm.lifetime.end.p0(i64 25, ptr nonnull %5) #4
  br label %30

30:                                               ; preds = %4, %.thread33
  %.0 = phi i32 [ %.2, %.thread33 ], [ -136, %4 ]
  ret i32 %.0
}